target datalayout = "e-m:e-p270:32:32-p271:32:32-p272:64:64-i64:64-i128:128-f80:128-n8:16:32:64-S128"
target triple = "x86_64-pc-linux-gnu"

; Function Attrs: nounwind ssp uwtable
define dso_local i32 @crypto_aead_chacha20poly1305_ietf_decrypt(ptr noundef %0, ptr noundef %1, ptr noundef %2, ptr noundef nonnull %3, i64 noundef %4, ptr noundef %5, i64 noundef %6, ptr noundef nonnull %7, ptr noundef nonnull %8) #0 {
  %10 = alloca ptr, align 8
  %11 = alloca ptr, align 8
  %12 = alloca ptr, align 8
  %13 = alloca ptr, align 8
  %14 = alloca i64, align 8
  %15 = alloca ptr, align 8
  %16 = alloca i64, align 8
  %17 = alloca ptr, align 8
  %18 = alloca ptr, align 8
  %19 = alloca i64, align 8
  %20 = alloca i32, align 4
  store ptr %0, ptr %10, align 8
  store ptr %1, ptr %11, align 8
  store ptr %2, ptr %12, align 8
  store ptr %3, ptr %13, align 8
  store i64 %4, ptr %14, align 8
  store ptr %5, ptr %15, align 8
  store i64 %6, ptr %16, align 8
  store ptr %7, ptr %17, align 8
  store ptr %8, ptr %18, align 8
  call void @llvm.lifetime.start.p0(i64 8, ptr %19) #8
  store i64 0, ptr %19, align 8
  call void @llvm.lifetime.start.p0(i64 4, ptr %20) #8
  store i32 -1, ptr %20, align 4
  %21 = load i64, ptr %14, align 8
  %22 = icmp uge i64 %21, 16
  br i1 %22, label %23, label %38

23:                                               ; preds = %9
  %24 = load ptr, ptr %10, align 8
  %25 = load ptr, ptr %12, align 8
  %26 = load ptr, ptr %13, align 8
  %27 = load i64, ptr %14, align 8
  %28 = sub i64 %27, 16
  %29 = load ptr, ptr %13, align 8
  %30 = load i64, ptr %14, align 8
  %31 = getelementptr i8, ptr %29, i64 %30
  %32 = getelementptr i8, ptr %31, i64 -16
  %33 = load ptr, ptr %15, align 8
  %34 = load i64, ptr %16, align 8
  %35 = load ptr, ptr %17, align 8
  %36 = load ptr, ptr %18, align 8
  %37 = call i32 @crypto_aead_chacha20poly1305_ietf_decrypt_detached(ptr noundef %24, ptr noundef %25, ptr noundef %26, i64 noundef %28, ptr noundef %32, ptr noundef %33, i64 noundef %34, ptr noundef %35, ptr noundef %36)
  store i32 %37, ptr %20, align 4
  br label %38

38:                                               ; preds = %23, %9
  %39 = load ptr, ptr %11, align 8
  %40 = icmp ne ptr %39, null
  br i1 %40, label %41, label %50

41:                                               ; preds = %38
  %42 = load i32, ptr %20, align 4
  %43 = icmp eq i32 %42, 0
  br i1 %43, label %44, label %47

44:                                               ; preds = %41
  %45 = load i64, ptr %14, align 8
  %46 = sub i64 %45, 16
  store i64 %46, ptr %19, align 8
  br label %47

47:                                               ; preds = %44, %41
  %48 = load i64, ptr %19, align 8
  %49 = load ptr, ptr %11, align 8
  store i64 %48, ptr %49, align 8
  br label %50

50:                                               ; preds = %47, %38
  %51 = load i32, ptr %20, align 4
  call void @llvm.lifetime.end.p0(i64 4, ptr %20) #8
  call void @llvm.lifetime.end.p0(i64 8, ptr %19) #8
  ret i32 %51
}