; Function Attrs: nounwind ssp uwtable
define dso_local i32 @crypto_aead_chacha20poly1305_ietf_decrypt(ptr noundef %0, ptr noundef writeonly captures(address_is_null) %1, ptr noundef readnone captures(none) %2, ptr noundef nonnull %3, i64 noundef %4, ptr noundef %5, i64 noundef %6, ptr noundef nonnull %7, ptr noundef nonnull %8) local_unnamed_addr #0 {
  %10 = icmp ugt i64 %4, 15
  br i1 %10, label %11, label %16

11:                                               ; preds = %9
  %12 = add i64 %4, -16
  %13 = getelementptr i8, ptr %3, i64 %4
  %14 = getelementptr i8, ptr %13, i64 -16
  %15 = tail call i32 @crypto_aead_chacha20poly1305_ietf_decrypt_detached(ptr noundef %0, ptr poison, ptr noundef %3, i64 noundef %12, ptr noundef %14, ptr noundef %5, i64 noundef %6, ptr noundef %7, ptr noundef %8)
  br label %16

16:                                               ; preds = %11, %9
  %.0 = phi i32 [ %15, %11 ], [ -1, %9 ]
  %.not = icmp eq ptr %1, null
  br i1 %.not, label %20, label %17

17:                                               ; preds = %16
  %18 = icmp eq i32 %.0, 0
  %19 = add i64 %4, -16
  %spec.select = select i1 %18, i64 %19, i64 0
  store i64 %spec.select, ptr %1, align 8
  br label %20

20:                                               ; preds = %17, %16
  ret i32 %.0
}